target datalayout = "e-m:e-p270:32:32-p271:32:32-p272:64:64-i64:64-i128:128-f80:128-n8:16:32:64-S128"
target triple = "x86_64-pc-linux-gnu"

%"struct.gmx::EnumerationArray" = type { [6 x ptr] }
%"class.gmx::TimeUnitBehavior" = type { %"class.gmx::IOptionsBehavior", i32, ptr }
%"class.gmx::IOptionsBehavior" = type { ptr }
%"class.gmx::EnumOption" = type <{ %"class.gmx::OptionTemplate", ptr, i32, [4 x i8] }>
%"class.gmx::OptionTemplate" = type { %"class.gmx::AbstractOption", ptr, ptr, ptr, ptr, ptr }
%"class.gmx::AbstractOption" = type { ptr, i32, i32, ptr, ptr, %"class.gmx::FlagsTemplate", ptr }
%"class.gmx::FlagsTemplate" = type { i64 }

@_ZN3gmx12_GLOBAL__N_115c_timeUnitNamesE = internal constant %"struct.gmx::EnumerationArray" { [6 x ptr] [ptr @.str.5, ptr @.str.6, ptr @.str.7, ptr @.str.8, ptr @.str.9, ptr @.str.10] }, align 8
@.str.4 = private unnamed_addr constant [21 x i8] c"Unit for time values\00", align 1
@_ZTVN3gmx14AbstractOptionE = linkonce_odr unnamed_addr constant { [5 x ptr] } { [5 x ptr] [ptr null, ptr @_ZTIN3gmx14AbstractOptionE, ptr @_ZN3gmx14AbstractOptionD2Ev, ptr @_ZN3gmx14AbstractOptionD0Ev, ptr @__cxa_pure_virtual] }, comdat, align 8
@_ZTIN3gmx10OptionInfoE = external constant ptr
@_ZTIN3gmx14EnumOptionInfoE = linkonce_odr constant { ptr, ptr, ptr } { ptr getelementptr inbounds (ptr, ptr @_ZTVN10__cxxabiv120__si_class_type_infoE, i64 2), ptr @_ZTSN3gmx14EnumOptionInfoE, ptr @_ZTIN3gmx10OptionInfoE }, comdat, align 8

; Function Attrs: mustprogress nounwind uwtable
define linkonce_odr void @_ZN3gmx13FlagsTemplateINS_10OptionFlagEEC2Ev(ptr noundef nonnull align 8 dereferenceable(8) %0) unnamed_addr #0 comdat align 2 {
  %2 = alloca ptr, align 8
  store ptr %0, ptr %2, align 8, !tbaa !212
  %3 = load ptr, ptr %2, align 8
  %4 = getelementptr inbounds nuw %"class.gmx::FlagsTemplate", ptr %3, i32 0, i32 0
  store i64 0, ptr %4, align 8, !tbaa !214
  ret void
}

; Function Attrs: mustprogress uwtable
define linkonce_odr void @_ZN3gmx14AbstractOptionC2EPKc(ptr noundef nonnull align 8 dereferenceable(48) %0, ptr noundef %1) unnamed_addr #1 comdat align 2 {
  %3 = alloca ptr, align 8
  %4 = alloca ptr, align 8
  store ptr %0, ptr %3, align 8, !tbaa !205
  store ptr %1, ptr %4, align 8, !tbaa !12
  %5 = load ptr, ptr %3, align 8
  store ptr getelementptr inbounds inrange(-16, 24) ({ [5 x ptr] }, ptr @_ZTVN3gmx14AbstractOptionE, i32 0, i32 0, i32 2), ptr %5, align 8, !tbaa !22
  %6 = getelementptr inbounds nuw %"class.gmx::AbstractOption", ptr %5, i32 0, i32 1
  store i32 1, ptr %6, align 8, !tbaa !207
  %7 = getelementptr inbounds nuw %"class.gmx::AbstractOption", ptr %5, i32 0, i32 2
  store i32 1, ptr %7, align 4, !tbaa !208
  %8 = getelementptr inbounds nuw %"class.gmx::AbstractOption", ptr %5, i32 0, i32 3
  %9 = load ptr, ptr %4, align 8, !tbaa !12
  store ptr %9, ptr %8, align 8, !tbaa !209
  %10 = getelementptr inbounds nuw %"class.gmx::AbstractOption", ptr %5, i32 0, i32 4
  store ptr null, ptr %10, align 8, !tbaa !210
  %11 = getelementptr inbounds nuw %"class.gmx::AbstractOption", ptr %5, i32 0, i32 5
  call void @_ZN3gmx13FlagsTemplateINS_10OptionFlagEEC2Ev(ptr noundef nonnull align 8 dereferenceable(8) %11)
  %12 = getelementptr inbounds nuw %"class.gmx::AbstractOption", ptr %5, i32 0, i32 6
  store ptr null, ptr %12, align 8, !tbaa !211
  ret void
}

; Function Attrs: mustprogress nounwind uwtable
define linkonce_odr noundef ptr @_ZN3gmx10OptionInfo6toTypeINS_14EnumOptionInfoEEEPT_v(ptr noundef nonnull align 8 dereferenceable(16) %0) #0 comdat align 2 {
  %2 = alloca ptr, align 8
  store ptr %0, ptr %2, align 8, !tbaa !62
  %3 = load ptr, ptr %2, align 8
  %4 = icmp eq ptr %3, null
  br i1 %4, label %7, label %5

5:                                                ; preds = %1
  %6 = call ptr @__dynamic_cast(ptr %3, ptr @_ZTIN3gmx10OptionInfoE, ptr @_ZTIN3gmx14EnumOptionInfoE, i64 0) #19
  br label %8

7:                                                ; preds = %1
  br label %8

8:                                                ; preds = %7, %5
  %9 = phi ptr [ %6, %5 ], [ null, %7 ]
  ret ptr %9
}

; Function Attrs: mustprogress nounwind uwtable
define linkonce_odr void @_ZN3gmx14AbstractOption14setDescriptionEPKc(ptr noundef nonnull align 8 dereferenceable(48) %0, ptr noundef %1) #0 comdat align 2 {
  %3 = alloca ptr, align 8
  %4 = alloca ptr, align 8
  store ptr %0, ptr %3, align 8, !tbaa !205
  store ptr %1, ptr %4, align 8, !tbaa !12
  %5 = load ptr, ptr %3, align 8
  %6 = load ptr, ptr %4, align 8, !tbaa !12
  %7 = getelementptr inbounds nuw %"class.gmx::AbstractOption", ptr %5, i32 0, i32 4
  store ptr %6, ptr %7, align 8, !tbaa !210
  ret void
}

; Function Attrs: mustprogress nounwind uwtable
define linkonce_odr noundef nonnull align 8 dereferenceable(100) ptr @_ZN3gmx14OptionTemplateINS_8TimeUnitENS_10EnumOptionIS1_EEE2meEv(ptr noundef nonnull align 8 dereferenceable(88) %0) #0 comdat align 2 {
  %2 = alloca ptr, align 8
  store ptr %0, ptr %2, align 8, !tbaa !76
  %3 = load ptr, ptr %2, align 8
  ret ptr %3
}

; Function Attrs: mustprogress nounwind uwtable
define linkonce_odr noundef i64 @_ZNK3gmx16EnumerationArrayINS_8TimeUnitEPKcLS1_6EE4sizeEv(ptr noundef nonnull align 8 dereferenceable(48) %0) #0 comdat align 2 {
  %2 = alloca ptr, align 8
  store ptr %0, ptr %2, align 8, !tbaa !14
  ret i64 6
}

; Function Attrs: mustprogress nounwind uwtable
define linkonce_odr noundef ptr @_ZNK3gmx16EnumerationArrayINS_8TimeUnitEPKcLS1_6EE4dataEv(ptr noundef nonnull align 8 dereferenceable(48) %0) #0 comdat align 2 {
  %2 = alloca ptr, align 8
  store ptr %0, ptr %2, align 8, !tbaa !14
  %3 = load ptr, ptr %2, align 8
  %4 = getelementptr inbounds nuw %"struct.gmx::EnumerationArray", ptr %3, i32 0, i32 0
  %5 = getelementptr inbounds [6 x ptr], ptr %4, i64 0, i64 0
  ret ptr %5
}

; Function Attrs: mustprogress uwtable
define linkonce_odr void @_ZN3gmx14OptionTemplateINS_8TimeUnitENS_10EnumOptionIS1_EEEC2EPKc(ptr noundef nonnull align 8 dereferenceable(88) %0, ptr noundef %1) unnamed_addr #1 comdat align 2 {
  %3 = alloca ptr, align 8
  %4 = alloca ptr, align 8
  store ptr %0, ptr %3, align 8, !tbaa !76
  store ptr %1, ptr %4, align 8, !tbaa !12
  %5 = load ptr, ptr %3, align 8
  %6 = load ptr, ptr %4, align 8, !tbaa !12
  call void @_ZN3gmx14AbstractOptionC2EPKc(ptr noundef nonnull align 8 dereferenceable(48) %5, ptr noundef %6)
  store ptr getelementptr inbounds inrange(-16, 24) ({ [5 x ptr] }, ptr @_ZTVN3gmx14OptionTemplateINS_8TimeUnitENS_10EnumOptionIS1_EEEE, i32 0, i32 0, i32 2), ptr %5, align 8, !tbaa !22
  %7 = getelementptr inbounds nuw %"class.gmx::OptionTemplate", ptr %5, i32 0, i32 1
  store ptr null, ptr %7, align 8, !tbaa !198
  %8 = getelementptr inbounds nuw %"class.gmx::OptionTemplate", ptr %5, i32 0, i32 2
  store ptr null, ptr %8, align 8, !tbaa !199
  %9 = getelementptr inbounds nuw %"class.gmx::OptionTemplate", ptr %5, i32 0, i32 3
  store ptr null, ptr %9, align 8, !tbaa !78
  %10 = getelementptr inbounds nuw %"class.gmx::OptionTemplate", ptr %5, i32 0, i32 4
  store ptr null, ptr %10, align 8, !tbaa !200
  %11 = getelementptr inbounds nuw %"class.gmx::OptionTemplate", ptr %5, i32 0, i32 5
  store ptr null, ptr %11, align 8, !tbaa !201
  ret void
}

; Function Attrs: mustprogress nounwind uwtable
define linkonce_odr void @_ZN3gmx14AbstractOptionD2Ev(ptr noundef nonnull align 8 dereferenceable(48) %0) unnamed_addr #0 comdat align 2 {
  %2 = alloca ptr, align 8
  store ptr %0, ptr %2, align 8, !tbaa !205
  ret void
}

; Function Attrs: mustprogress uwtable
define linkonce_odr noundef ptr @_ZN3gmx17IOptionsContainer9addOptionINS_10EnumOptionINS_8TimeUnitEEEEEPNT_8InfoTypeERKS5_(ptr noundef nonnull align 8 dereferenceable(8) %0, ptr noundef nonnull align 8 dereferenceable(100) %1) #1 comdat align 2 {
  %3 = alloca ptr, align 8
  %4 = alloca ptr, align 8
  %5 = alloca ptr, align 8
  store ptr %0, ptr %3, align 8, !tbaa !58
  store ptr %1, ptr %4, align 8, !tbaa !60
  %6 = load ptr, ptr %3, align 8
  call void @llvm.lifetime.start.p0(i64 8, ptr %5) #19
  %7 = load ptr, ptr %4, align 8, !tbaa !60
  %8 = load ptr, ptr %6, align 8, !tbaa !22
  %9 = getelementptr inbounds ptr, ptr %8, i64 3
  %10 = load ptr, ptr %9, align 8
  %11 = call noundef ptr %10(ptr noundef nonnull align 8 dereferenceable(8) %6, ptr noundef nonnull align 8 dereferenceable(48) %7)
  store ptr %11, ptr %5, align 8, !tbaa !62
  %12 = load ptr, ptr %5, align 8, !tbaa !62
  %13 = call noundef ptr @_ZN3gmx10OptionInfo6toTypeINS_14EnumOptionInfoEEEPT_v(ptr noundef nonnull align 8 dereferenceable(16) %12)
  call void @llvm.lifetime.end.p0(i64 8, ptr %5) #19
  ret ptr %13
}

; Function Attrs: mustprogress uwtable
define linkonce_odr noundef nonnull align 8 dereferenceable(100) ptr @_ZN3gmx14OptionTemplateINS_8TimeUnitENS_10EnumOptionIS1_EEE11descriptionEPKc(ptr noundef nonnull align 8 dereferenceable(88) %0, ptr noundef %1) #1 comdat align 2 {
  %3 = alloca ptr, align 8
  %4 = alloca ptr, align 8
  store ptr %0, ptr %3, align 8, !tbaa !76
  store ptr %1, ptr %4, align 8, !tbaa !12
  %5 = load ptr, ptr %3, align 8
  %6 = load ptr, ptr %4, align 8, !tbaa !12
  call void @_ZN3gmx14AbstractOption14setDescriptionEPKc(ptr noundef nonnull align 8 dereferenceable(48) %5, ptr noundef %6)
  %7 = call noundef nonnull align 8 dereferenceable(100) ptr @_ZN3gmx14OptionTemplateINS_8TimeUnitENS_10EnumOptionIS1_EEE2meEv(ptr noundef nonnull align 8 dereferenceable(88) %5)
  ret ptr %7
}

; Function Attrs: mustprogress nounwind uwtable
define linkonce_odr noundef nonnull align 8 dereferenceable(100) ptr @_ZN3gmx14OptionTemplateINS_8TimeUnitENS_10EnumOptionIS1_EEE5storeEPS1_(ptr noundef nonnull align 8 dereferenceable(88) %0, ptr noundef %1) #0 comdat align 2 {
  %3 = alloca ptr, align 8
  %4 = alloca ptr, align 8
  store ptr %0, ptr %3, align 8, !tbaa !76
  store ptr %1, ptr %4, align 8, !tbaa !30
  %5 = load ptr, ptr %3, align 8
  %6 = load ptr, ptr %4, align 8, !tbaa !30
  %7 = getelementptr inbounds nuw %"class.gmx::OptionTemplate", ptr %5, i32 0, i32 3
  store ptr %6, ptr %7, align 8, !tbaa !78
  %8 = call noundef nonnull align 8 dereferenceable(100) ptr @_ZN3gmx14OptionTemplateINS_8TimeUnitENS_10EnumOptionIS1_EEE2meEv(ptr noundef nonnull align 8 dereferenceable(88) %5)
  ret ptr %8
}

; Function Attrs: mustprogress uwtable
define linkonce_odr noundef nonnull align 8 dereferenceable(100) ptr @_ZN3gmx10EnumOptionINS_8TimeUnitEE9enumValueERKNS_16EnumerationArrayIS1_PKcLS1_6EEE(ptr noundef nonnull align 8 dereferenceable(100) %0, ptr noundef nonnull align 8 dereferenceable(48) %1) #1 comdat align 2 {
  %3 = alloca ptr, align 8
  %4 = alloca ptr, align 8
  store ptr %0, ptr %3, align 8, !tbaa !60
  store ptr %1, ptr %4, align 8, !tbaa !14
  %5 = load ptr, ptr %3, align 8
  %6 = load ptr, ptr %4, align 8, !tbaa !14
  %7 = call noundef ptr @_ZNK3gmx16EnumerationArrayINS_8TimeUnitEPKcLS1_6EE4dataEv(ptr noundef nonnull align 8 dereferenceable(48) %6)
  %8 = getelementptr inbounds nuw %"class.gmx::EnumOption", ptr %5, i32 0, i32 1
  store ptr %7, ptr %8, align 8, !tbaa !64
  %9 = load ptr, ptr %4, align 8, !tbaa !14
  %10 = call noundef i64 @_ZNK3gmx16EnumerationArrayINS_8TimeUnitEPKcLS1_6EE4sizeEv(ptr noundef nonnull align 8 dereferenceable(48) %9)
  %11 = trunc i64 %10 to i32
  %12 = getelementptr inbounds nuw %"class.gmx::EnumOption", ptr %5, i32 0, i32 2
  store i32 %11, ptr %12, align 8, !tbaa !75
  %13 = call noundef nonnull align 8 dereferenceable(100) ptr @_ZN3gmx14OptionTemplateINS_8TimeUnitENS_10EnumOptionIS1_EEE2meEv(ptr noundef nonnull align 8 dereferenceable(88) %5)
  ret ptr %13
}

; Function Attrs: mustprogress uwtable
define linkonce_odr void @_ZN3gmx10EnumOptionINS_8TimeUnitEEC2EPKc(ptr noundef nonnull align 8 dereferenceable(100) %0, ptr noundef %1) unnamed_addr #1 comdat align 2 {
  %3 = alloca ptr, align 8
  %4 = alloca ptr, align 8
  store ptr %0, ptr %3, align 8, !tbaa !60
  store ptr %1, ptr %4, align 8, !tbaa !12
  %5 = load ptr, ptr %3, align 8
  %6 = load ptr, ptr %4, align 8, !tbaa !12
  call void @_ZN3gmx14OptionTemplateINS_8TimeUnitENS_10EnumOptionIS1_EEEC2EPKc(ptr noundef nonnull align 8 dereferenceable(88) %5, ptr noundef %6)
  store ptr getelementptr inbounds inrange(-16, 24) ({ [5 x ptr] }, ptr @_ZTVN3gmx10EnumOptionINS_8TimeUnitEEE, i32 0, i32 0, i32 2), ptr %5, align 8, !tbaa !22
  %7 = getelementptr inbounds nuw %"class.gmx::EnumOption", ptr %5, i32 0, i32 1
  store ptr null, ptr %7, align 8, !tbaa !64
  %8 = getelementptr inbounds nuw %"class.gmx::EnumOption", ptr %5, i32 0, i32 2
  store i32 0, ptr %8, align 8, !tbaa !75
  ret void
}

; Function Attrs: mustprogress uwtable
define void @_ZN3gmx16TimeUnitBehavior17addTimeUnitOptionEPNS_17IOptionsContainerEPKc(ptr noundef nonnull align 8 dereferenceable(24) %0, ptr noundef %1, ptr noundef %2) #1 align 2 personality ptr @__gxx_personality_v0 {
  %4 = alloca ptr, align 8
  %5 = alloca ptr, align 8
  %6 = alloca ptr, align 8
  %7 = alloca %"class.gmx::EnumOption", align 8
  %8 = alloca ptr, align 8
  %9 = alloca i32, align 4
  store ptr %0, ptr %4, align 8, !tbaa !20
  store ptr %1, ptr %5, align 8, !tbaa !58
  store ptr %2, ptr %6, align 8, !tbaa !12
  %10 = load ptr, ptr %4, align 8
  %11 = load ptr, ptr %5, align 8, !tbaa !58
  call void @llvm.lifetime.start.p0(i64 104, ptr %7) #19
  %12 = load ptr, ptr %6, align 8, !tbaa !12
  call void @_ZN3gmx10EnumOptionINS_8TimeUnitEEC2EPKc(ptr noundef nonnull align 8 dereferenceable(100) %7, ptr noundef %12)
  %13 = invoke noundef nonnull align 8 dereferenceable(100) ptr @_ZN3gmx10EnumOptionINS_8TimeUnitEE9enumValueERKNS_16EnumerationArrayIS1_PKcLS1_6EEE(ptr noundef nonnull align 8 dereferenceable(100) %7, ptr noundef nonnull align 8 dereferenceable(48) @_ZN3gmx12_GLOBAL__N_115c_timeUnitNamesE)
          to label %14 unwind label %22

14:                                               ; preds = %3
  %15 = getelementptr inbounds nuw %"class.gmx::TimeUnitBehavior", ptr %10, i32 0, i32 1
  %16 = invoke noundef nonnull align 8 dereferenceable(100) ptr @_ZN3gmx14OptionTemplateINS_8TimeUnitENS_10EnumOptionIS1_EEE5storeEPS1_(ptr noundef nonnull align 8 dereferenceable(88) %13, ptr noundef %15)
          to label %17 unwind label %22

17:                                               ; preds = %14
  %18 = invoke noundef nonnull align 8 dereferenceable(100) ptr @_ZN3gmx14OptionTemplateINS_8TimeUnitENS_10EnumOptionIS1_EEE11descriptionEPKc(ptr noundef nonnull align 8 dereferenceable(88) %16, ptr noundef @.str.4)
          to label %19 unwind label %22

19:                                               ; preds = %17
  %20 = invoke noundef ptr @_ZN3gmx17IOptionsContainer9addOptionINS_10EnumOptionINS_8TimeUnitEEEEEPNT_8InfoTypeERKS5_(ptr noundef nonnull align 8 dereferenceable(8) %11, ptr noundef nonnull align 8 dereferenceable(100) %18)
          to label %21 unwind label %22

21:                                               ; preds = %19
  call void @_ZN3gmx14AbstractOptionD2Ev(ptr noundef nonnull align 8 dereferenceable(100) %7) #19
  call void @llvm.lifetime.end.p0(i64 104, ptr %7) #19
  ret void

22:                                               ; preds = %19, %17, %14, %3
  %23 = landingpad { ptr, i32 }
          cleanup
  %24 = extractvalue { ptr, i32 } %23, 0
  store ptr %24, ptr %8, align 8
  %25 = extractvalue { ptr, i32 } %23, 1
  store i32 %25, ptr %9, align 4
  call void @_ZN3gmx14AbstractOptionD2Ev(ptr noundef nonnull align 8 dereferenceable(100) %7) #19
  call void @llvm.lifetime.end.p0(i64 104, ptr %7) #19
  br label %26

26:                                               ; preds = %22
  %27 = load ptr, ptr %8, align 8
  %28 = load i32, ptr %9, align 4
  %29 = insertvalue { ptr, i32 } poison, ptr %27, 0
  %30 = insertvalue { ptr, i32 } %29, i32 %28, 1
  resume { ptr, i32 } %30
}