; Function Attrs: mustprogress uwtable
define void @_ZN3gmx16TimeUnitBehavior17addTimeUnitOptionEPNS_17IOptionsContainerEPKc(ptr noundef nonnull align 8 dereferenceable(24) %0, ptr noundef %1, ptr noundef %2) local_unnamed_addr #4 align 2 personality ptr @__gxx_personality_v0 {
_ZN3gmx17IOptionsContainer9addOptionINS_10EnumOptionINS_8TimeUnitEEEEEPNT_8InfoTypeERKS5_.exit:
  %3 = alloca %"class.gmx::EnumOption", align 8
  call void @llvm.lifetime.start.p0(i64 104, ptr nonnull %3) #24
  %4 = getelementptr inbounds nuw i8, ptr %3, i64 8
  store i32 1, ptr %4, align 8, !tbaa !60
  %5 = getelementptr inbounds nuw i8, ptr %3, i64 12
  store i32 1, ptr %5, align 4, !tbaa !64
  %6 = getelementptr inbounds nuw i8, ptr %3, i64 16
  store ptr %2, ptr %6, align 8, !tbaa !65
  %7 = getelementptr inbounds nuw i8, ptr %3, i64 24
  %8 = getelementptr inbounds nuw i8, ptr %3, i64 32
  call void @llvm.memset.p0.i64(ptr noundef nonnull align 8 dereferenceable(56) %8, i8 0, i64 56, i1 false)
  store ptr getelementptr inbounds nuw inrange(-16, 24) (i8, ptr @_ZTVN3gmx10EnumOptionINS_8TimeUnitEEE, i64 16), ptr %3, align 8, !tbaa !13
  %9 = getelementptr inbounds nuw i8, ptr %3, i64 88
  %10 = getelementptr inbounds nuw i8, ptr %3, i64 96
  store ptr @_ZN3gmx12_GLOBAL__N_115c_timeUnitNamesE, ptr %9, align 8, !tbaa !66
  store i32 6, ptr %10, align 8, !tbaa !73
  %11 = getelementptr inbounds nuw i8, ptr %0, i64 8
  %12 = getelementptr inbounds nuw i8, ptr %3, i64 64
  store ptr %11, ptr %12, align 8, !tbaa !74
  store ptr @.str.4, ptr %7, align 8, !tbaa !75
  %13 = load ptr, ptr %1, align 8, !tbaa !13
  %14 = getelementptr inbounds nuw i8, ptr %13, i64 24
  %15 = load ptr, ptr %14, align 8
  %16 = call noundef ptr %15(ptr noundef nonnull align 8 dereferenceable(8) %1, ptr noundef nonnull align 8 dereferenceable(100) %3)
  call void @llvm.lifetime.end.p0(i64 104, ptr nonnull %3) #24
  ret void
}